; Function Attrs: mustprogress nofree norecurse nosync nounwind willreturn memory(read, inaccessiblemem: none) uwtable
define hidden noundef zeroext i1 @_ZNK19OpenColorIO_v2_5dev22ExposureContrastOpData9isDynamicEv(ptr noundef nonnull readonly align 8 captures(none) dereferenceable(248) %0) local_unnamed_addr #8 align 2 {
  %2 = getelementptr inbounds nuw i8, ptr %0, i64 176
  %3 = load ptr, ptr %2, align 8, !tbaa !42
  %4 = getelementptr inbounds nuw i8, ptr %3, i64 12
  %5 = load i8, ptr %4, align 4, !tbaa !76, !range !81, !noundef !82
  %6 = trunc nuw i8 %5 to i1
  br i1 %6, label %19, label %7

7:                                                ; preds = %1
  %8 = getelementptr inbounds nuw i8, ptr %0, i64 192
  %9 = load ptr, ptr %8, align 8, !tbaa !42
  %10 = getelementptr inbounds nuw i8, ptr %9, i64 12
  %11 = load i8, ptr %10, align 4, !tbaa !76, !range !81, !noundef !82
  %12 = trunc nuw i8 %11 to i1
  br i1 %12, label %19, label %13

13:                                               ; preds = %7
  %14 = getelementptr inbounds nuw i8, ptr %0, i64 208
  %15 = load ptr, ptr %14, align 8, !tbaa !42
  %16 = getelementptr inbounds nuw i8, ptr %15, i64 12
  %17 = load i8, ptr %16, align 4, !tbaa !76, !range !81, !noundef !82
  %18 = trunc nuw i8 %17 to i1
  br label %19

19:                                               ; preds = %13, %7, %1
  %20 = phi i1 [ true, %7 ], [ true, %1 ], [ %18, %13 ]
  ret i1 %20
}